target datalayout = "e-m:e-p270:32:32-p271:32:32-p272:64:64-i64:64-i128:128-f80:128-n8:16:32:64-S128"
target triple = "x86_64-pc-linux-gnu"

; Function Attrs: nounwind uwtable
define internal i32 @fref(double noundef %0, ptr noundef %1, ptr noundef %2, ptr noundef %3) #0 {
  %5 = alloca double, align 8
  %6 = alloca ptr, align 8
  %7 = alloca ptr, align 8
  %8 = alloca ptr, align 8
  %9 = alloca ptr, align 8
  %10 = alloca ptr, align 8
  store double %0, ptr %5, align 8, !tbaa !11
  store ptr %1, ptr %6, align 8, !tbaa !14
  store ptr %2, ptr %7, align 8, !tbaa !14
  store ptr %3, ptr %8, align 8, !tbaa !13
  call void @llvm.lifetime.start.p0(i64 8, ptr %9) #7
  store ptr null, ptr %9, align 8, !tbaa !16
  call void @llvm.lifetime.start.p0(i64 8, ptr %10) #7
  store ptr null, ptr %10, align 8, !tbaa !16
  %11 = load ptr, ptr %6, align 8, !tbaa !14
  %12 = call ptr @N_VGetArrayPointer(ptr noundef %11)
  store ptr %12, ptr %9, align 8, !tbaa !16
  %13 = load ptr, ptr %7, align 8, !tbaa !14
  %14 = call ptr @N_VGetArrayPointer(ptr noundef %13)
  store ptr %14, ptr %10, align 8, !tbaa !16
  %15 = load ptr, ptr %9, align 8, !tbaa !16
  %16 = getelementptr inbounds double, ptr %15, i64 1
  %17 = load double, ptr %16, align 8, !tbaa !11
  %18 = load ptr, ptr %10, align 8, !tbaa !16
  %19 = getelementptr inbounds double, ptr %18, i64 0
  store double %17, ptr %19, align 8, !tbaa !11
  %20 = load ptr, ptr %9, align 8, !tbaa !16
  %21 = getelementptr inbounds double, ptr %20, i64 0
  %22 = load double, ptr %21, align 8, !tbaa !11
  %23 = call double @cos(double noundef %22) #7, !tbaa !4
  %24 = fmul double 0xC02B8030B6094833, %23
  %25 = load ptr, ptr %10, align 8, !tbaa !16
  %26 = getelementptr inbounds double, ptr %25, i64 1
  store double %24, ptr %26, align 8, !tbaa !11
  call void @llvm.lifetime.end.p0(i64 8, ptr %10) #7
  call void @llvm.lifetime.end.p0(i64 8, ptr %9) #7
  ret i32 0
}